; Function Attrs: mustprogress uwtable
define internal noundef zeroext i1 @"_ZNSt17_Function_handlerIFbvEZ21composition_example_2vE3$_6E9_M_invokeERKSt9_Any_data"(ptr nocapture noundef nonnull align 8 dereferenceable(16) %__functor) #5 align 2 {
entry:
  %call.i.i.i = tail call noundef nonnull align 8 dereferenceable(8) ptr @_ZStlsISt11char_traitsIcEERSt13basic_ostreamIcT_ES5_c(ptr noundef nonnull align 8 dereferenceable(8) @_ZSt4cout, i8 noundef signext 10)
  %0 = load i32, ptr %__functor, align 8
  %dec.i.i.i = add nsw i32 %0, -1
  store i32 %dec.i.i.i, ptr %__functor, align 8
  %cmp.i.i.i = icmp eq i32 %0, 0
  ret i1 %cmp.i.i.i
}